ccopy_reg
_reconstructor
p0
(cgoogle.oauth2.credentials
Credentials
p1
c__builtin__
object
p2
Ntp3
Rp4
(dp5
S'_quota_project_id'
p6
NsS'_token_uri'
p7
Vhttps://oauth2.googleapis.com/token
p8
sS'_client_secret'
p9
VElcP09lW5kejYQIA7y2W281C
p10
sS'_id_token'
p11
NsS'token'
p12
Vya29.a0AfH6SMBebBCpa7JKEamll0pBVjXZ6d1Y6UD62usKvnTrA3GDPOT_pRL7C4fmKZOM_nteKdmCEHeyimYuTfxWVnAs0B1IzWw4bJz5jb0d-heXIyN7D0xn14lPmSTfhOqvRiP-31u_F_kjySDo-oJ7zSrqWDURJ8-4-ZAJdA
p13
sS'_refresh_token'
p14
V1//03cNjN9ICNjniCgYIARAAGAMSNwF-L9IrePl8Gx5dVZovJpUQwsz2DWaCybGZgOa8sWj8SVKkAMWByqjZE80YmPQ9HLqZPvvABbU
p15
sS'_scopes'
p16
(lp17
S'https://www.googleapis.com/auth/drive.metadata.readonly'
p18
asS'_client_id'
p19
V367877938551-0o9269qh5n7mjpfjlsdskgiqn4cebfbr.apps.googleusercontent.com
p20
sS'expiry'
p21
cdatetime
datetime
p22
(S'\x07\xe4\x07\x14\x08\x15\x0b\x0e(\xe0'
p23
tp24
Rp25
sb.