ccopy_reg
_reconstructor
p0
(cgoogle.oauth2.credentials
Credentials
p1
c__builtin__
object
p2
Ntp3
Rp4
(dp5
S'_quota_project_id'
p6
NsS'_token_uri'
p7
Vhttps://oauth2.googleapis.com/token
p8
sS'_client_secret'
p9
VElcP09lW5kejYQIA7y2W281C
p10
sS'_id_token'
p11
NsS'token'
p12
Vya29.a0AfH6SMBhJ8Qre7ONRq_mqNWEBRW4kJqhfpoQz0YxZFMUeCyShW0LHaJzN_Vx4wQ95M0jDtWCiySKYL5g7f_tuKKDVP_7ID-xwCFo1Cozw0eSqmSDGAOqqEMZXLUiHtAGAmO-mKzO9FdqaQzk9FqbJhLqilgL2yiQrqaQkQ
p13
sS'_refresh_token'
p14
V1//03cNjN9ICNjniCgYIARAAGAMSNwF-L9IrePl8Gx5dVZovJpUQwsz2DWaCybGZgOa8sWj8SVKkAMWByqjZE80YmPQ9HLqZPvvABbU
p15
sS'_scopes'
p16
(lp17
S'https://www.googleapis.com/auth/drive.metadata.readonly'
p18
asS'_client_id'
p19
V367877938551-0o9269qh5n7mjpfjlsdskgiqn4cebfbr.apps.googleusercontent.com
p20
sS'expiry'
p21
cdatetime
datetime
p22
(S'\x07\xe4\x08\x03\x0f\x19\x04\ny\xb4'
p23
tp24
Rp25
sb.